target datalayout = "e-m:e-p270:32:32-p271:32:32-p272:64:64-i64:64-i128:128-f80:128-n8:16:32:64-S128"
target triple = "x86_64-pc-linux-gnu"

%struct._lv_obj_t = type { ptr, ptr, ptr, ptr, ptr, %struct.lv_area_t, i32, i16, i16 }
%struct.lv_area_t = type { i32, i32, i32, i32 }
%struct._lv_obj_style_t = type { ptr, i32 }
%union.lv_style_value_t = type { ptr }

; Function Attrs: inlinehint nounwind uwtable
define internal void @lv_memzero(ptr noundef %0, i64 noundef %1) #3 {
  %3 = alloca ptr, align 8
  %4 = alloca i64, align 8
  store ptr %0, ptr %3, align 8, !tbaa !31
  store i64 %1, ptr %4, align 8, !tbaa !66
  %5 = load ptr, ptr %3, align 8, !tbaa !31
  %6 = load i64, ptr %4, align 8, !tbaa !66
  call void @lv_memset(ptr noundef %5, i8 noundef zeroext 0, i64 noundef %6)
  ret void
}

; Function Attrs: inlinehint nounwind uwtable
define internal zeroext i1 @lv_style_prop_has_flag(i8 noundef zeroext %0, i8 noundef zeroext %1) #3 {
  %3 = alloca i8, align 1
  %4 = alloca i8, align 1
  store i8 %0, ptr %3, align 1, !tbaa !43
  store i8 %1, ptr %4, align 1, !tbaa !43
  %5 = load i8, ptr %3, align 1, !tbaa !43
  %6 = call zeroext i8 @lv_style_prop_lookup_flags(i8 noundef zeroext %5)
  %7 = zext i8 %6 to i32
  %8 = load i8, ptr %4, align 1, !tbaa !43
  %9 = zext i8 %8 to i32
  %10 = and i32 %7, %9
  %11 = icmp ne i32 %10, 0
  ret i1 %11
}

; Function Attrs: nounwind uwtable
define internal ptr @get_local_style(ptr noundef %0, i32 noundef %1) #0 {
  %3 = alloca ptr, align 8
  %4 = alloca ptr, align 8
  %5 = alloca i32, align 4
  %6 = alloca i32, align 4
  %7 = alloca i32, align 4
  store ptr %0, ptr %4, align 8, !tbaa !30
  store i32 %1, ptr %5, align 4, !tbaa !32
  call void @llvm.lifetime.start.p0(i64 4, ptr %6) #6
  store i32 0, ptr %6, align 4, !tbaa !32
  br label %8

8:                                                ; preds = %51, %2
  %9 = load i32, ptr %6, align 4, !tbaa !32
  %10 = load ptr, ptr %4, align 8, !tbaa !30
  %11 = getelementptr inbounds nuw %struct._lv_obj_t, ptr %10, i32 0, i32 8
  %12 = load i16, ptr %11, align 2
  %13 = lshr i16 %12, 4
  %14 = and i16 %13, 63
  %15 = zext i16 %14 to i32
  %16 = icmp ult i32 %9, %15
  br i1 %16, label %17, label %54

17:                                               ; preds = %8
  %18 = load ptr, ptr %4, align 8, !tbaa !30
  %19 = getelementptr inbounds nuw %struct._lv_obj_t, ptr %18, i32 0, i32 3
  %20 = load ptr, ptr %19, align 8, !tbaa !33
  %21 = load i32, ptr %6, align 4, !tbaa !32
  %22 = zext i32 %21 to i64
  %23 = getelementptr inbounds nuw %struct._lv_obj_style_t, ptr %20, i64 %22
  %24 = getelementptr inbounds nuw %struct._lv_obj_style_t, ptr %23, i32 0, i32 1
  %25 = load i32, ptr %24, align 8
  %26 = lshr i32 %25, 24
  %27 = and i32 %26, 1
  %28 = icmp ne i32 %27, 0
  br i1 %28, label %29, label %50

29:                                               ; preds = %17
  %30 = load ptr, ptr %4, align 8, !tbaa !30
  %31 = getelementptr inbounds nuw %struct._lv_obj_t, ptr %30, i32 0, i32 3
  %32 = load ptr, ptr %31, align 8, !tbaa !33
  %33 = load i32, ptr %6, align 4, !tbaa !32
  %34 = zext i32 %33 to i64
  %35 = getelementptr inbounds nuw %struct._lv_obj_style_t, ptr %32, i64 %34
  %36 = getelementptr inbounds nuw %struct._lv_obj_style_t, ptr %35, i32 0, i32 1
  %37 = load i32, ptr %36, align 8
  %38 = and i32 %37, 16777215
  %39 = load i32, ptr %5, align 4, !tbaa !32
  %40 = icmp eq i32 %38, %39
  br i1 %40, label %41, label %50

41:                                               ; preds = %29
  %42 = load ptr, ptr %4, align 8, !tbaa !30
  %43 = getelementptr inbounds nuw %struct._lv_obj_t, ptr %42, i32 0, i32 3
  %44 = load ptr, ptr %43, align 8, !tbaa !33
  %45 = load i32, ptr %6, align 4, !tbaa !32
  %46 = zext i32 %45 to i64
  %47 = getelementptr inbounds nuw %struct._lv_obj_style_t, ptr %44, i64 %46
  %48 = getelementptr inbounds nuw %struct._lv_obj_style_t, ptr %47, i32 0, i32 0
  %49 = load ptr, ptr %48, align 8, !tbaa !45
  store ptr %49, ptr %3, align 8
  store i32 1, ptr %7, align 4
  br label %217

50:                                               ; preds = %29, %17
  br label %51

51:                                               ; preds = %50
  %52 = load i32, ptr %6, align 4, !tbaa !32
  %53 = add i32 %52, 1
  store i32 %53, ptr %6, align 4, !tbaa !32
  br label %8, !llvm.loop !102

54:                                               ; preds = %8
  %55 = load ptr, ptr %4, align 8, !tbaa !30
  %56 = getelementptr inbounds nuw %struct._lv_obj_t, ptr %55, i32 0, i32 8
  %57 = load i16, ptr %56, align 2
  %58 = lshr i16 %57, 4
  %59 = and i16 %58, 63
  %60 = add i16 %59, 1
  %61 = load i16, ptr %56, align 2
  %62 = and i16 %60, 63
  %63 = shl i16 %62, 4
  %64 = and i16 %61, -1009
  %65 = or i16 %64, %63
  store i16 %65, ptr %56, align 2
  br label %66

66:                                               ; preds = %54
  %67 = load ptr, ptr %4, align 8, !tbaa !30
  %68 = getelementptr inbounds nuw %struct._lv_obj_t, ptr %67, i32 0, i32 8
  %69 = load i16, ptr %68, align 2
  %70 = lshr i16 %69, 4
  %71 = and i16 %70, 63
  %72 = zext i16 %71 to i32
  %73 = icmp ne i32 %72, 0
  br i1 %73, label %80, label %74

74:                                               ; preds = %66
  br label %75

75:                                               ; preds = %74
  br label %76

76:                                               ; preds = %75
  br label %77

77:                                               ; preds = %76
  br label %78

78:                                               ; preds = %79, %77
  br label %79

79:                                               ; preds = %78
  br label %78

80:                                               ; preds = %66
  br label %81

81:                                               ; preds = %80
  br label %82

82:                                               ; preds = %81
  %83 = load ptr, ptr %4, align 8, !tbaa !30
  %84 = getelementptr inbounds nuw %struct._lv_obj_t, ptr %83, i32 0, i32 3
  %85 = load ptr, ptr %84, align 8, !tbaa !33
  %86 = load ptr, ptr %4, align 8, !tbaa !30
  %87 = getelementptr inbounds nuw %struct._lv_obj_t, ptr %86, i32 0, i32 8
  %88 = load i16, ptr %87, align 2
  %89 = lshr i16 %88, 4
  %90 = and i16 %89, 63
  %91 = zext i16 %90 to i64
  %92 = mul i64 %91, 16
  %93 = call ptr @lv_realloc(ptr noundef %85, i64 noundef %92)
  %94 = load ptr, ptr %4, align 8, !tbaa !30
  %95 = getelementptr inbounds nuw %struct._lv_obj_t, ptr %94, i32 0, i32 3
  store ptr %93, ptr %95, align 8, !tbaa !33
  br label %96

96:                                               ; preds = %82
  %97 = load ptr, ptr %4, align 8, !tbaa !30
  %98 = getelementptr inbounds nuw %struct._lv_obj_t, ptr %97, i32 0, i32 3
  %99 = load ptr, ptr %98, align 8, !tbaa !33
  %100 = icmp ne ptr %99, null
  br i1 %100, label %107, label %101

101:                                              ; preds = %96
  br label %102

102:                                              ; preds = %101
  br label %103

103:                                              ; preds = %102
  br label %104

104:                                              ; preds = %103
  br label %105

105:                                              ; preds = %106, %104
  br label %106

106:                                              ; preds = %105
  br label %105

107:                                              ; preds = %96
  br label %108

108:                                              ; preds = %107
  br label %109

109:                                              ; preds = %108
  %110 = load ptr, ptr %4, align 8, !tbaa !30
  %111 = getelementptr inbounds nuw %struct._lv_obj_t, ptr %110, i32 0, i32 8
  %112 = load i16, ptr %111, align 2
  %113 = lshr i16 %112, 4
  %114 = and i16 %113, 63
  %115 = zext i16 %114 to i32
  %116 = sub nsw i32 %115, 1
  store i32 %116, ptr %6, align 4, !tbaa !32
  br label %117

117:                                              ; preds = %161, %109
  %118 = load i32, ptr %6, align 4, !tbaa !32
  %119 = icmp ugt i32 %118, 0
  br i1 %119, label %120, label %164

120:                                              ; preds = %117
  %121 = load ptr, ptr %4, align 8, !tbaa !30
  %122 = getelementptr inbounds nuw %struct._lv_obj_t, ptr %121, i32 0, i32 3
  %123 = load ptr, ptr %122, align 8, !tbaa !33
  %124 = load i32, ptr %6, align 4, !tbaa !32
  %125 = sub i32 %124, 1
  %126 = zext i32 %125 to i64
  %127 = getelementptr inbounds nuw %struct._lv_obj_style_t, ptr %123, i64 %126
  %128 = getelementptr inbounds nuw %struct._lv_obj_style_t, ptr %127, i32 0, i32 1
  %129 = load i32, ptr %128, align 8
  %130 = lshr i32 %129, 24
  %131 = and i32 %130, 1
  %132 = icmp ne i32 %131, 0
  br i1 %132, label %146, label %133

133:                                              ; preds = %120
  %134 = load ptr, ptr %4, align 8, !tbaa !30
  %135 = getelementptr inbounds nuw %struct._lv_obj_t, ptr %134, i32 0, i32 3
  %136 = load ptr, ptr %135, align 8, !tbaa !33
  %137 = load i32, ptr %6, align 4, !tbaa !32
  %138 = sub i32 %137, 1
  %139 = zext i32 %138 to i64
  %140 = getelementptr inbounds nuw %struct._lv_obj_style_t, ptr %136, i64 %139
  %141 = getelementptr inbounds nuw %struct._lv_obj_style_t, ptr %140, i32 0, i32 1
  %142 = load i32, ptr %141, align 8
  %143 = lshr i32 %142, 25
  %144 = and i32 %143, 1
  %145 = icmp ne i32 %144, 0
  br i1 %145, label %146, label %147

146:                                              ; preds = %133, %120
  br label %164

147:                                              ; preds = %133
  %148 = load ptr, ptr %4, align 8, !tbaa !30
  %149 = getelementptr inbounds nuw %struct._lv_obj_t, ptr %148, i32 0, i32 3
  %150 = load ptr, ptr %149, align 8, !tbaa !33
  %151 = load i32, ptr %6, align 4, !tbaa !32
  %152 = zext i32 %151 to i64
  %153 = getelementptr inbounds nuw %struct._lv_obj_style_t, ptr %150, i64 %152
  %154 = load ptr, ptr %4, align 8, !tbaa !30
  %155 = getelementptr inbounds nuw %struct._lv_obj_t, ptr %154, i32 0, i32 3
  %156 = load ptr, ptr %155, align 8, !tbaa !33
  %157 = load i32, ptr %6, align 4, !tbaa !32
  %158 = sub i32 %157, 1
  %159 = zext i32 %158 to i64
  %160 = getelementptr inbounds nuw %struct._lv_obj_style_t, ptr %156, i64 %159
  call void @llvm.memcpy.p0.p0.i64(ptr align 8 %153, ptr align 8 %160, i64 16, i1 false), !tbaa.struct !42
  br label %161

161:                                              ; preds = %147
  %162 = load i32, ptr %6, align 4, !tbaa !32
  %163 = add i32 %162, -1
  store i32 %163, ptr %6, align 4, !tbaa !32
  br label %117, !llvm.loop !103

164:                                              ; preds = %146, %117
  %165 = load ptr, ptr %4, align 8, !tbaa !30
  %166 = getelementptr inbounds nuw %struct._lv_obj_t, ptr %165, i32 0, i32 3
  %167 = load ptr, ptr %166, align 8, !tbaa !33
  %168 = load i32, ptr %6, align 4, !tbaa !32
  %169 = zext i32 %168 to i64
  %170 = getelementptr inbounds nuw %struct._lv_obj_style_t, ptr %167, i64 %169
  call void @lv_memzero(ptr noundef %170, i64 noundef 16)
  %171 = call ptr @lv_malloc_zeroed(i64 noundef 16)
  %172 = load ptr, ptr %4, align 8, !tbaa !30
  %173 = getelementptr inbounds nuw %struct._lv_obj_t, ptr %172, i32 0, i32 3
  %174 = load ptr, ptr %173, align 8, !tbaa !33
  %175 = load i32, ptr %6, align 4, !tbaa !32
  %176 = zext i32 %175 to i64
  %177 = getelementptr inbounds nuw %struct._lv_obj_style_t, ptr %174, i64 %176
  %178 = getelementptr inbounds nuw %struct._lv_obj_style_t, ptr %177, i32 0, i32 0
  store ptr %171, ptr %178, align 8, !tbaa !45
  %179 = load ptr, ptr %4, align 8, !tbaa !30
  %180 = getelementptr inbounds nuw %struct._lv_obj_t, ptr %179, i32 0, i32 3
  %181 = load ptr, ptr %180, align 8, !tbaa !33
  %182 = load i32, ptr %6, align 4, !tbaa !32
  %183 = zext i32 %182 to i64
  %184 = getelementptr inbounds nuw %struct._lv_obj_style_t, ptr %181, i64 %183
  %185 = getelementptr inbounds nuw %struct._lv_obj_style_t, ptr %184, i32 0, i32 0
  %186 = load ptr, ptr %185, align 8, !tbaa !45
  call void @lv_style_init(ptr noundef %186)
  %187 = load ptr, ptr %4, align 8, !tbaa !30
  %188 = getelementptr inbounds nuw %struct._lv_obj_t, ptr %187, i32 0, i32 3
  %189 = load ptr, ptr %188, align 8, !tbaa !33
  %190 = load i32, ptr %6, align 4, !tbaa !32
  %191 = zext i32 %190 to i64
  %192 = getelementptr inbounds nuw %struct._lv_obj_style_t, ptr %189, i64 %191
  %193 = getelementptr inbounds nuw %struct._lv_obj_style_t, ptr %192, i32 0, i32 1
  %194 = load i32, ptr %193, align 8
  %195 = and i32 %194, -16777217
  %196 = or i32 %195, 16777216
  store i32 %196, ptr %193, align 8
  %197 = load i32, ptr %5, align 4, !tbaa !32
  %198 = load ptr, ptr %4, align 8, !tbaa !30
  %199 = getelementptr inbounds nuw %struct._lv_obj_t, ptr %198, i32 0, i32 3
  %200 = load ptr, ptr %199, align 8, !tbaa !33
  %201 = load i32, ptr %6, align 4, !tbaa !32
  %202 = zext i32 %201 to i64
  %203 = getelementptr inbounds nuw %struct._lv_obj_style_t, ptr %200, i64 %202
  %204 = getelementptr inbounds nuw %struct._lv_obj_style_t, ptr %203, i32 0, i32 1
  %205 = load i32, ptr %204, align 8
  %206 = and i32 %197, 16777215
  %207 = and i32 %205, -16777216
  %208 = or i32 %207, %206
  store i32 %208, ptr %204, align 8
  %209 = load ptr, ptr %4, align 8, !tbaa !30
  %210 = getelementptr inbounds nuw %struct._lv_obj_t, ptr %209, i32 0, i32 3
  %211 = load ptr, ptr %210, align 8, !tbaa !33
  %212 = load i32, ptr %6, align 4, !tbaa !32
  %213 = zext i32 %212 to i64
  %214 = getelementptr inbounds nuw %struct._lv_obj_style_t, ptr %211, i64 %213
  %215 = getelementptr inbounds nuw %struct._lv_obj_style_t, ptr %214, i32 0, i32 0
  %216 = load ptr, ptr %215, align 8, !tbaa !45
  store ptr %216, ptr %3, align 8
  store i32 1, ptr %7, align 4
  br label %217

217:                                              ; preds = %164, %41
  call void @llvm.lifetime.end.p0(i64 4, ptr %6) #6
  %218 = load ptr, ptr %3, align 8
  ret ptr %218
}

; Function Attrs: inlinehint nounwind uwtable
define internal i32 @lv_obj_style_get_selector_part(i32 noundef %0) #3 {
  %2 = alloca i32, align 4
  store i32 %0, ptr %2, align 4, !tbaa !32
  %3 = load i32, ptr %2, align 4, !tbaa !32
  %4 = and i32 %3, 16711680
  ret i32 %4
}

; Function Attrs: nounwind uwtable
define void @lv_obj_set_local_style_prop(ptr noundef %0, i8 noundef zeroext %1, ptr %2, i32 noundef %3) #0 {
  %5 = alloca %union.lv_style_value_t, align 8
  %6 = alloca ptr, align 8
  %7 = alloca i8, align 1
  %8 = alloca i32, align 4
  %9 = alloca ptr, align 8
  %10 = getelementptr inbounds nuw %union.lv_style_value_t, ptr %5, i32 0, i32 0
  store ptr %2, ptr %10, align 8
  store ptr %0, ptr %6, align 8, !tbaa !30
  store i8 %1, ptr %7, align 1, !tbaa !43
  store i32 %3, ptr %8, align 4, !tbaa !32
  %11 = load ptr, ptr %6, align 8, !tbaa !30
  %12 = load i32, ptr %8, align 4, !tbaa !32
  %13 = call i32 @lv_obj_style_get_selector_part(i32 noundef %12)
  %14 = load i8, ptr %7, align 1, !tbaa !43
  %15 = call zeroext i1 @trans_delete(ptr noundef %11, i32 noundef %13, i8 noundef zeroext %14, ptr noundef null)
  call void @llvm.lifetime.start.p0(i64 8, ptr %9) #6
  %16 = load ptr, ptr %6, align 8, !tbaa !30
  %17 = load i32, ptr %8, align 4, !tbaa !32
  %18 = call ptr @get_local_style(ptr noundef %16, i32 noundef %17)
  store ptr %18, ptr %9, align 8, !tbaa !31
  %19 = load i32, ptr %8, align 4, !tbaa !32
  %20 = icmp eq i32 %19, 0
  br i1 %20, label %21, label %26

21:                                               ; preds = %4
  %22 = load i8, ptr %7, align 1, !tbaa !43
  %23 = call zeroext i1 @lv_style_prop_has_flag(i8 noundef zeroext %22, i8 noundef zeroext 32)
  br i1 %23, label %24, label %26

24:                                               ; preds = %21
  %25 = load ptr, ptr %6, align 8, !tbaa !30
  call void @lv_obj_invalidate(ptr noundef %25)
  br label %26

26:                                               ; preds = %24, %21, %4
  %27 = load ptr, ptr %9, align 8, !tbaa !31
  %28 = load i8, ptr %7, align 1, !tbaa !43
  %29 = getelementptr inbounds nuw %union.lv_style_value_t, ptr %5, i32 0, i32 0
  %30 = load ptr, ptr %29, align 8
  call void @lv_style_set_prop(ptr noundef %27, i8 noundef zeroext %28, ptr %30)
  %31 = load ptr, ptr %6, align 8, !tbaa !30
  %32 = load i32, ptr %8, align 4, !tbaa !32
  %33 = load i8, ptr %7, align 1, !tbaa !43
  call void @lv_obj_refresh_style(ptr noundef %31, i32 noundef %32, i8 noundef zeroext %33)
  call void @llvm.lifetime.end.p0(i64 8, ptr %9) #6
  ret void
}