; Function Attrs: nounwind uwtable
define void @lv_obj_set_local_style_prop(ptr noundef %0, i8 noundef zeroext %1, ptr %2, i32 noundef %3) local_unnamed_addr #0 {
  %5 = and i32 %3, 16711680
  tail call fastcc void @trans_delete(ptr noundef %0, i32 noundef %5, i8 noundef zeroext %1, ptr noundef null)
  %6 = getelementptr inbounds nuw i8, ptr %0, i64 62
  %7 = load i16, ptr %6, align 2
  %8 = lshr i16 %7, 4
  %9 = and i16 %8, 63
  %.not64.i = icmp eq i16 %9, 0
  br i1 %.not64.i, label %._crit_edge.i, label %.lr.ph.i

.lr.ph.i:                                         ; preds = %4
  %10 = getelementptr inbounds nuw i8, ptr %0, i64 24
  %11 = load ptr, ptr %10, align 8, !tbaa !38
  %wide.trip.count.i = zext nneg i16 %9 to i64
  br label %13

12:                                               ; preds = %13
  %indvars.iv.next.i = add nuw nsw i64 %indvars.iv.i, 1
  %exitcond.not.i = icmp eq i64 %indvars.iv.next.i, %wide.trip.count.i
  br i1 %exitcond.not.i, label %._crit_edge.i, label %13, !llvm.loop !93

13:                                               ; preds = %12, %.lr.ph.i
  %indvars.iv.i = phi i64 [ 0, %.lr.ph.i ], [ %indvars.iv.next.i, %12 ]
  %14 = getelementptr inbounds nuw %struct._lv_obj_style_t, ptr %11, i64 %indvars.iv.i
  %15 = getelementptr inbounds nuw i8, ptr %14, i64 8
  %16 = load i32, ptr %15, align 8
  %17 = and i32 %16, 16777216
  %.not45.i = icmp ne i32 %17, 0
  %18 = and i32 %16, 16777215
  %19 = icmp eq i32 %18, %3
  %or.cond.i = and i1 %.not45.i, %19
  br i1 %or.cond.i, label %get_local_style.exit, label %12

._crit_edge.i:                                    ; preds = %12, %4
  %20 = add i16 %7, 16
  %21 = and i16 %20, 1008
  %22 = and i16 %7, -1009
  %23 = or disjoint i16 %21, %22
  store i16 %23, ptr %6, align 2
  %24 = lshr i16 %20, 4
  %25 = and i16 %24, 63
  %.not.i = icmp eq i16 %25, 0
  br i1 %.not.i, label %.preheader.i, label %26

.preheader.i:                                     ; preds = %._crit_edge.i, %.preheader.i
  br label %.preheader.i

26:                                               ; preds = %._crit_edge.i
  %27 = getelementptr inbounds nuw i8, ptr %0, i64 24
  %28 = load ptr, ptr %27, align 8, !tbaa !38
  %29 = shl nuw nsw i16 %25, 4
  %30 = zext nneg i16 %29 to i64
  %31 = tail call ptr @lv_realloc(ptr noundef %28, i64 noundef %30) #9
  store ptr %31, ptr %27, align 8, !tbaa !38
  %.not41.i = icmp eq ptr %31, null
  br i1 %.not41.i, label %.preheader48.i, label %32

.preheader48.i:                                   ; preds = %26, %.preheader48.i
  br label %.preheader48.i

32:                                               ; preds = %26
  %33 = load i16, ptr %6, align 2
  %34 = lshr i16 %33, 4
  %35 = and i16 %34, 63
  %36 = zext nneg i16 %35 to i32
  %.154.i = add nsw i32 %36, -1
  %.not4255.i = icmp eq i32 %.154.i, 0
  br i1 %.not4255.i, label %._crit_edge60.i, label %.lr.ph59.preheader.i

.lr.ph59.preheader.i:                             ; preds = %32
  %37 = zext i32 %.154.i to i64
  br label %.lr.ph59.i

.lr.ph59.i:                                       ; preds = %45, %.lr.ph59.preheader.i
  %indvars.iv67.i = phi i64 [ %37, %.lr.ph59.preheader.i ], [ %indvars.iv.next68.i, %45 ]
  %.1.in56.i = phi i32 [ %36, %.lr.ph59.preheader.i ], [ %46, %45 ]
  %38 = load ptr, ptr %27, align 8, !tbaa !38
  %39 = add i32 %.1.in56.i, -2
  %40 = zext i32 %39 to i64
  %41 = getelementptr inbounds nuw %struct._lv_obj_style_t, ptr %38, i64 %40
  %42 = getelementptr inbounds nuw i8, ptr %41, i64 8
  %43 = load i32, ptr %42, align 8
  %44 = and i32 %43, 50331648
  %or.cond47.i = icmp eq i32 %44, 0
  br i1 %or.cond47.i, label %45, label %._crit_edge60.loopexitsplit.i

45:                                               ; preds = %.lr.ph59.i
  %46 = trunc nuw i64 %indvars.iv67.i to i32
  %47 = getelementptr inbounds nuw %struct._lv_obj_style_t, ptr %38, i64 %indvars.iv67.i
  tail call void @llvm.memcpy.p0.p0.i64(ptr noundef nonnull align 8 dereferenceable(16) %47, ptr noundef nonnull align 8 dereferenceable(16) %41, i64 16, i1 false), !tbaa.struct !46
  %indvars.iv.next68.i = add nsw i64 %indvars.iv67.i, -1
  %48 = and i64 %indvars.iv.next68.i, 4294967295
  %.not42.i = icmp eq i64 %48, 0
  br i1 %.not42.i, label %.._crit_edge60.loopexit_crit_edge.i, label %.lr.ph59.i, !llvm.loop !94

.._crit_edge60.loopexit_crit_edge.i:              ; preds = %45
  %.pre.pre.i = load ptr, ptr %27, align 8, !tbaa !38
  br label %._crit_edge60.i

._crit_edge60.loopexitsplit.i:                    ; preds = %.lr.ph59.i
  %49 = and i64 %indvars.iv67.i, 4294967295
  br label %._crit_edge60.i

._crit_edge60.i:                                  ; preds = %._crit_edge60.loopexitsplit.i, %.._crit_edge60.loopexit_crit_edge.i, %32
  %50 = phi ptr [ %31, %32 ], [ %.pre.pre.i, %.._crit_edge60.loopexit_crit_edge.i ], [ %38, %._crit_edge60.loopexitsplit.i ]
  %.1.lcssa.i = phi i64 [ 0, %32 ], [ 0, %.._crit_edge60.loopexit_crit_edge.i ], [ %49, %._crit_edge60.loopexitsplit.i ]
  %51 = getelementptr inbounds nuw %struct._lv_obj_style_t, ptr %50, i64 %.1.lcssa.i
  tail call void @lv_memset(ptr noundef %51, i8 noundef zeroext 0, i64 noundef 16) #9
  %52 = tail call ptr @lv_malloc_zeroed(i64 noundef 16) #9
  %53 = load ptr, ptr %27, align 8, !tbaa !38
  %54 = getelementptr inbounds nuw %struct._lv_obj_style_t, ptr %53, i64 %.1.lcssa.i
  store ptr %52, ptr %54, align 8, !tbaa !49
  tail call void @lv_style_init(ptr noundef %52) #9
  %55 = load ptr, ptr %27, align 8, !tbaa !38
  %56 = getelementptr inbounds nuw %struct._lv_obj_style_t, ptr %55, i64 %.1.lcssa.i, i32 1
  %57 = load i32, ptr %56, align 8
  %58 = or i32 %57, 16777216
  store i32 %58, ptr %56, align 8
  %59 = load ptr, ptr %27, align 8, !tbaa !38
  %60 = getelementptr inbounds nuw %struct._lv_obj_style_t, ptr %59, i64 %.1.lcssa.i, i32 1
  %61 = load i32, ptr %60, align 8
  %62 = and i32 %3, 16777215
  %63 = and i32 %61, -16777216
  %64 = or disjoint i32 %63, %62
  store i32 %64, ptr %60, align 8
  %65 = load ptr, ptr %27, align 8, !tbaa !38
  %66 = getelementptr inbounds nuw %struct._lv_obj_style_t, ptr %65, i64 %.1.lcssa.i
  br label %get_local_style.exit

get_local_style.exit:                             ; preds = %13, %._crit_edge60.i
  %.040.in.i = phi ptr [ %66, %._crit_edge60.i ], [ %14, %13 ]
  %.040.i = load ptr, ptr %.040.in.i, align 8, !tbaa !49
  %67 = icmp eq i32 %3, 0
  br i1 %67, label %68, label %72

68:                                               ; preds = %get_local_style.exit
  %69 = tail call zeroext i8 @lv_style_prop_lookup_flags(i8 noundef zeroext %1) #9
  %70 = and i8 %69, 32
  %.not = icmp eq i8 %70, 0
  br i1 %.not, label %72, label %71

71:                                               ; preds = %68
  tail call void @lv_obj_invalidate(ptr noundef %0) #9
  br label %72

72:                                               ; preds = %71, %68, %get_local_style.exit
  tail call void @lv_style_set_prop(ptr noundef %.040.i, i8 noundef zeroext %1, ptr %2) #9
  tail call void @lv_obj_refresh_style(ptr noundef %0, i32 noundef %3, i8 noundef zeroext %1)
  ret void
}